TN:
SF:/Users/freddy/Projects/arctk/include/arctk/debug/assert.inl
FN:35,_ZN3arc5debug9assertionEbPKcS2_S2_i
FNDA:26,_ZN3arc5debug9assertionEbPKcS2_S2_i
FNF:1
FNH:1
DA:37,26
DA:39,26
DA:42,0
DA:44,0
DA:45,0
DA:46,0
DA:47,0
DA:49,0
DA:51,0
DA:52,0
DA:54,0
DA:55,0
DA:56,0
DA:58,0
DA:59,0
LF:15
LH:2
end_of_record
TN:
SF:/Users/freddy/Projects/arctk/include/arctk/debug/trace.inl
FN:33,_ZN3arc5debug10stacktraceEv
FNDA:0,_ZN3arc5debug10stacktraceEv
FNF:1
FNH:0
DA:40,0
DA:85,0
DA:86,0
LF:3
LH:0
end_of_record
TN:
SF:/Users/freddy/Projects/arctk/include/arctk/math/compare.inl
FN:32,_ZN3arc4math4zeroIdEEbT_S2_
FN:41,_ZN3arc4math5equalIdEEbT_S2_S2_
FNDA:12,_ZN3arc4math4zeroIdEEbT_S2_
FNDA:20,_ZN3arc4math5equalIdEEbT_S2_S2_
FNF:2
FNH:2
DA:35,24
DA:37,12
DA:44,40
DA:46,60
LF:4
LH:4
end_of_record
TN:
SF:/Users/freddy/Projects/arctk/include/arctk/math/power.inl
FN:23,_ZN3arc4math2sqIiiEET0_RKT_
FN:29,_ZN3arc4math4cubeIiiEET0_RKT_
FNDA:4,_ZN3arc4math4cubeIiiEET0_RKT_
FNDA:4,_ZN3arc4math2sqIiiEET0_RKT_
FNF:2
FNH:2
DA:25,4
DA:31,4
LF:2
LH:2
end_of_record
TN:
SF:/Users/freddy/Projects/arctk/testing/unit/debug/assert.cpp
FN:27,main
FN:46,_ZN3arc4test4passEv
FNDA:2,_ZN3arc4test4passEv
FNDA:2,main
FNF:2
FNH:2
DA:29,2
DA:31,2
DA:48,4
DA:49,2
LF:4
LH:4
end_of_record
TN:
SF:/Users/freddy/Projects/arctk/testing/unit/debug/trace.cpp
FN:32,main
FN:51,_ZN3arc4test5traceEv
FNDA:2,_ZN3arc4test5traceEv
FNDA:2,main
FNF:2
FNH:2
DA:34,2
DA:36,2
DA:53,4
LF:3
LH:3
end_of_record
TN:
SF:/Users/freddy/Projects/arctk/testing/unit/exit/error.cpp
FN:26,main
FNDA:2,main
FNF:1
FNH:1
DA:28,2
LF:1
LH:1
end_of_record
TN:
SF:/Users/freddy/Projects/arctk/testing/unit/lin/vec.cpp
FN:14,_ZN26TestSuitName_TestName_TestC2Ev
FN:14,_ZN26TestSuitName_TestName_TestD2Ev
FN:14,_ZN26TestSuitName_TestName_TestC1Ev
FN:14,_ZN26TestSuitName_TestName_TestD1Ev
FN:14,_ZN26TestSuitName_TestName_Test8TestBodyEv
FN:14,_ZN26TestSuitName_TestName_TestD0Ev
FN:14,__cxx_global_var_init
FN:19,_ZN27TestSuitName_TestName2_TestD2Ev
FN:19,_ZN27TestSuitName_TestName2_TestC2Ev
FN:19,__cxx_global_var_init.4
FN:19,_ZN27TestSuitName_TestName2_TestD1Ev
FN:19,_ZN27TestSuitName_TestName2_TestC1Ev
FN:19,_ZN27TestSuitName_TestName2_Test8TestBodyEv
FN:19,_ZN27TestSuitName_TestName2_TestD0Ev
FNDA:1,_ZN27TestSuitName_TestName2_TestC2Ev
FNDA:1,_ZN26TestSuitName_TestName_TestD2Ev
FNDA:1,_ZN26TestSuitName_TestName_TestC1Ev
FNDA:1,_ZN26TestSuitName_TestName_TestD1Ev
FNDA:1,_ZN27TestSuitName_TestName2_TestD2Ev
FNDA:1,_ZN26TestSuitName_TestName_TestC2Ev
FNDA:1,_ZN26TestSuitName_TestName_TestD0Ev
FNDA:1,_ZN26TestSuitName_TestName_Test8TestBodyEv
FNDA:2,__cxx_global_var_init.4
FNDA:1,_ZN27TestSuitName_TestName2_TestD1Ev
FNDA:1,_ZN27TestSuitName_TestName2_Test8TestBodyEv
FNDA:1,_ZN27TestSuitName_TestName2_TestD0Ev
FNDA:1,_ZN27TestSuitName_TestName2_TestC1Ev
FNDA:2,__cxx_global_var_init
FNF:14
FNH:14
DA:14,23
DA:16,4
DA:17,1
DA:19,23
DA:21,4
DA:22,1
LF:6
LH:6
end_of_record
TN:
SF:/Users/freddy/Projects/arctk/testing/unit/math/arithmetic.cpp
FN:29,main
FNDA:2,main
FNF:1
FNH:1
DA:31,2
LF:1
LH:1
end_of_record
TN:
SF:/Users/freddy/Projects/arctk/testing/unit/math/compare.cpp
FN:39,main
FN:65,_ZN3arc4test4zeroEv
FN:75,_ZN3arc4test5equalEv
FN:89,_ZN3arc4test14operator_equalEv
FN:98,_ZN3arc4test16operator_unequalEv
FN:107,_ZN3arc4test18operator_less_thanEv
FN:116,_ZN3arc4test27operator_less_than_equal_toEv
FN:125,_ZN3arc4test21operator_greater_thanEv
FN:134,_ZN3arc4test30operator_greater_than_equal_toEv
FNDA:2,_ZN3arc4test27operator_less_than_equal_toEv
FNDA:2,_ZN3arc4test5equalEv
FNDA:2,_ZN3arc4test18operator_less_thanEv
FNDA:2,_ZN3arc4test30operator_greater_than_equal_toEv
FNDA:2,_ZN3arc4test14operator_equalEv
FNDA:2,_ZN3arc4test21operator_greater_thanEv
FNDA:2,_ZN3arc4test16operator_unequalEv
FNDA:2,main
FNDA:2,_ZN3arc4test4zeroEv
FNF:9
FNH:9
DA:41,2
DA:42,2
DA:43,2
DA:44,2
DA:45,2
DA:46,2
DA:47,2
DA:48,2
DA:50,2
DA:67,6
DA:68,4
DA:69,4
DA:70,4
DA:71,4
DA:72,4
DA:73,2
DA:77,6
DA:78,4
DA:79,4
DA:80,4
DA:81,4
DA:82,4
DA:83,4
DA:84,4
DA:85,4
DA:86,4
DA:87,2
DA:91,4
DA:92,2
DA:94,4
DA:95,4
DA:96,2
DA:100,4
DA:101,2
DA:103,4
DA:104,4
DA:105,2
DA:109,4
DA:110,2
DA:112,4
DA:113,4
DA:114,2
DA:118,4
DA:119,2
DA:121,4
DA:122,4
DA:123,2
DA:127,4
DA:128,2
DA:130,4
DA:131,4
DA:132,2
DA:136,4
DA:137,2
DA:139,4
DA:140,4
DA:141,2
LF:57
LH:57
end_of_record
TN:
SF:/Users/freddy/Projects/arctk/testing/unit/math/power.cpp
FN:31,main
FN:51,_ZN3arc4test2sqEv
FN:62,_ZN3arc4test4cubeEv
FNDA:2,_ZN3arc4test2sqEv
FNDA:2,_ZN3arc4test4cubeEv
FNDA:2,main
FNF:3
FNH:3
DA:33,2
DA:34,2
DA:36,2
DA:55,4
DA:59,2
DA:60,2
DA:66,4
DA:70,2
DA:71,2
LF:9
LH:9
end_of_record
